; Function Attrs: mustprogress nofree nounwind uwtable
define noundef zeroext i1 @_ZN4base23SetPosixFilePermissionsERKNS_8FilePathEi(ptr noundef nonnull readonly align 8 captures(none) dereferenceable(32) %0, i32 noundef %1) local_unnamed_addr #6 personality ptr @__gxx_personality_v0 {
  %3 = alloca %struct.stat64, align 8
  call void @llvm.lifetime.start.p0(i64 144, ptr nonnull %3) #24
  %4 = load ptr, ptr %0, align 8, !tbaa !3
  %5 = call noundef i32 @stat64(ptr noundef readonly %4, ptr noundef nonnull %3) #24
  %.not = icmp eq i32 %5, 0
  br i1 %.not, label %6, label %20

6:                                                ; preds = %2
  %7 = getelementptr inbounds nuw i8, ptr %3, i64 24
  %8 = load i32, ptr %7, align 8, !tbaa !13
  %9 = and i32 %8, -512
  %10 = and i32 %1, 511
  %11 = or disjoint i32 %9, %10
  br label %12

12:                                               ; preds = %16, %6
  %13 = load ptr, ptr %0, align 8, !tbaa !3
  %14 = tail call i32 @chmod(ptr noundef %13, i32 noundef %11) #24
  %15 = icmp eq i32 %14, -1
  br i1 %15, label %16, label %.critedge

16:                                               ; preds = %12
  %17 = tail call ptr @__errno_location() #25
  %18 = load i32, ptr %17, align 4, !tbaa !11
  %19 = icmp eq i32 %18, 4
  br i1 %19, label %12, label %.critedge, !llvm.loop !56

.critedge:                                        ; preds = %12, %16
  %.not8 = icmp eq i32 %14, 0
  br label %20

20:                                               ; preds = %2, %.critedge
  %.0 = phi i1 [ %.not8, %.critedge ], [ false, %2 ]
  call void @llvm.lifetime.end.p0(i64 144, ptr nonnull %3) #24
  ret i1 %.0
}